; ModuleID = '29/1745.c'
source_filename = "29/1745.c"
target datalayout = "e-m:e-p270:32:32-p271:32:32-p272:64:64-i64:64-f80:128-n8:16:32:64-S128"
target triple = "x86_64-pc-linux-gnu"

@.str = private unnamed_addr constant [3 x i8] c"%d\00", align 1
@.str.1 = private unnamed_addr constant [6 x i8] c"%.3f\0A\00", align 1

; Function Attrs: noinline nounwind uwtable
define dso_local double @cal(i32 %0) #0 {
  %2 = alloca i32, align 4
  %3 = alloca i32, align 4
  %4 = alloca i32, align 4
  %5 = alloca i32, align 4
  %6 = alloca i32, align 4
  %7 = alloca double, align 8
  store i32 %0, i32* %2, align 4
  store i32 1, i32* %4, align 4
  store i32 2, i32* %5, align 4
  store double 0.000000e+00, double* %7, align 8
  store i32 0, i32* %3, align 4
  br label %8

8:                                                ; preds = %25, %1
  %9 = load i32, i32* %3, align 4
  %10 = load i32, i32* %2, align 4
  %11 = icmp slt i32 %9, %10
  br i1 %11, label %12, label %28

12:                                               ; preds = %8
  %13 = load double, double* %7, align 8
  %14 = load i32, i32* %5, align 4
  %15 = sitofp i32 %14 to double
  %16 = load i32, i32* %4, align 4
  %17 = sitofp i32 %16 to double
  %18 = fdiv double %15, %17
  %19 = fadd double %13, %18
  store double %19, double* %7, align 8
  %20 = load i32, i32* %4, align 4
  %21 = load i32, i32* %5, align 4
  %22 = add nsw i32 %20, %21
  store i32 %22, i32* %6, align 4
  %23 = load i32, i32* %5, align 4
  store i32 %23, i32* %4, align 4
  %24 = load i32, i32* %6, align 4
  store i32 %24, i32* %5, align 4
  br label %25

25:                                               ; preds = %12
  %26 = load i32, i32* %3, align 4
  %27 = add nsw i32 %26, 1
  store i32 %27, i32* %3, align 4
  br label %8

28:                                               ; preds = %8
  %29 = load double, double* %7, align 8
  ret double %29
}

; Function Attrs: noinline nounwind uwtable
define dso_local i32 @main() #0 {
  %1 = alloca i32, align 4
  %2 = alloca i32, align 4
  %3 = alloca i32, align 4
  %4 = alloca [1000 x i32], align 16
  store i32 0, i32* %1, align 4
  %5 = call i32 (i8*, ...) @__isoc99_scanf(i8* getelementptr inbounds ([3 x i8], [3 x i8]* @.str, i64 0, i64 0), i32* %2)
  store i32 0, i32* %3, align 4
  br label %6

6:                                                ; preds = %21, %0
  %7 = load i32, i32* %3, align 4
  %8 = load i32, i32* %2, align 4
  %9 = icmp slt i32 %7, %8
  br i1 %9, label %10, label %24

10:                                               ; preds = %6
  %11 = load i32, i32* %3, align 4
  %12 = sext i32 %11 to i64
  %13 = getelementptr inbounds [1000 x i32], [1000 x i32]* %4, i64 0, i64 %12
  %14 = call i32 (i8*, ...) @__isoc99_scanf(i8* getelementptr inbounds ([3 x i8], [3 x i8]* @.str, i64 0, i64 0), i32* %13)
  %15 = load i32, i32* %3, align 4
  %16 = sext i32 %15 to i64
  %17 = getelementptr inbounds [1000 x i32], [1000 x i32]* %4, i64 0, i64 %16
  %18 = load i32, i32* %17, align 4
  %19 = call double @cal(i32 %18)
  %20 = call i32 (i8*, ...) @printf(i8* getelementptr inbounds ([6 x i8], [6 x i8]* @.str.1, i64 0, i64 0), double %19)
  br label %21

21:                                               ; preds = %10
  %22 = load i32, i32* %3, align 4
  %23 = add nsw i32 %22, 1
  store i32 %23, i32* %3, align 4
  br label %6

24:                                               ; preds = %6
  %25 = load i32, i32* %1, align 4
  ret i32 %25
}

declare dso_local i32 @__isoc99_scanf(i8*, ...) #1

declare dso_local i32 @printf(i8*, ...) #1


!llvm.module.flags = !{!0}
!llvm.ident = !{!1}

!0 = !{i32 1, !"wchar_size", i32 4}
!1 = !{!"clang version 10.0.0-4ubuntu1 "}
